target datalayout = "e-m:e-p270:32:32-p271:32:32-p272:64:64-i64:64-f80:128-n8:16:32:64-S128"
target triple = "x86_64-pc-linux-gnu"

@.str = private unnamed_addr constant [6 x i8] c"%d %d\00", align 1
@.str.1 = private unnamed_addr constant [3 x i8] c"%d\00", align 1
@.str.2 = private unnamed_addr constant [2 x i8] c" \00", align 1
@.str.3 = private unnamed_addr constant [2 x i8] c"\0A\00", align 1

; Function Attrs: noinline nounwind uwtable
define dso_local i32 @main() #0 {
  %1 = alloca i32, align 4
  %2 = alloca [100 x [100 x i32]], align 16
  %3 = alloca [100 x [100 x i32]], align 16
  %4 = alloca [100 x [100 x i32]], align 16
  %5 = alloca i32, align 4
  %6 = alloca i32, align 4
  %7 = alloca i32, align 4
  %8 = alloca i32, align 4
  %9 = alloca i32, align 4
  %10 = alloca i32, align 4
  %11 = alloca i32, align 4
  %12 = alloca i32, align 4
  %13 = alloca i32, align 4
  store i32 0, i32* %1, align 4
  %14 = call i32 (i8*, ...) @__isoc99_scanf(i8* getelementptr inbounds ([6 x i8], [6 x i8]* @.str, i64 0, i64 0), i32* %5, i32* %6)
  store i32 0, i32* %11, align 4
  br label %15

15:                                               ; preds = %43, %0
  %16 = load i32, i32* %11, align 4
  %17 = load i32, i32* %5, align 4
  %18 = icmp slt i32 %16, %17
  br i1 %18, label %19, label %46

19:                                               ; preds = %15
  store i32 0, i32* %12, align 4
  br label %20

20:                                               ; preds = %39, %19
  %21 = load i32, i32* %12, align 4
  %22 = load i32, i32* %6, align 4
  %23 = icmp slt i32 %21, %22
  br i1 %23, label %24, label %42

24:                                               ; preds = %20
  %25 = load i32, i32* %11, align 4
  %26 = sext i32 %25 to i64
  %27 = getelementptr inbounds [100 x [100 x i32]], [100 x [100 x i32]]* %2, i64 0, i64 %26
  %28 = load i32, i32* %12, align 4
  %29 = sext i32 %28 to i64
  %30 = getelementptr inbounds [100 x i32], [100 x i32]* %27, i64 0, i64 %29
  %31 = call i32 (i8*, ...) @__isoc99_scanf(i8* getelementptr inbounds ([3 x i8], [3 x i8]* @.str.1, i64 0, i64 0), i32* %30)
  %32 = load i32, i32* %12, align 4
  %33 = load i32, i32* %6, align 4
  %34 = sub nsw i32 %33, 1
  %35 = icmp slt i32 %32, %34
  br i1 %35, label %36, label %38

36:                                               ; preds = %24
  %37 = call i32 (i8*, ...) @__isoc99_scanf(i8* getelementptr inbounds ([2 x i8], [2 x i8]* @.str.2, i64 0, i64 0))
  br label %38

38:                                               ; preds = %36, %24
  br label %39

39:                                               ; preds = %38
  %40 = load i32, i32* %12, align 4
  %41 = add nsw i32 %40, 1
  store i32 %41, i32* %12, align 4
  br label %20

42:                                               ; preds = %20
  br label %43

43:                                               ; preds = %42
  %44 = load i32, i32* %11, align 4
  %45 = add nsw i32 %44, 1
  store i32 %45, i32* %11, align 4
  br label %15

46:                                               ; preds = %15
  store i32 0, i32* %11, align 4
  store i32 0, i32* %12, align 4
  %47 = call i32 (i8*, ...) @__isoc99_scanf(i8* getelementptr inbounds ([6 x i8], [6 x i8]* @.str, i64 0, i64 0), i32* %7, i32* %8)
  store i32 0, i32* %11, align 4
  br label %48

48:                                               ; preds = %76, %46
  %49 = load i32, i32* %11, align 4
  %50 = load i32, i32* %7, align 4
  %51 = icmp slt i32 %49, %50
  br i1 %51, label %52, label %79

52:                                               ; preds = %48
  store i32 0, i32* %12, align 4
  br label %53

53:                                               ; preds = %72, %52
  %54 = load i32, i32* %12, align 4
  %55 = load i32, i32* %8, align 4
  %56 = icmp slt i32 %54, %55
  br i1 %56, label %57, label %75

57:                                               ; preds = %53
  %58 = load i32, i32* %11, align 4
  %59 = sext i32 %58 to i64
  %60 = getelementptr inbounds [100 x [100 x i32]], [100 x [100 x i32]]* %3, i64 0, i64 %59
  %61 = load i32, i32* %12, align 4
  %62 = sext i32 %61 to i64
  %63 = getelementptr inbounds [100 x i32], [100 x i32]* %60, i64 0, i64 %62
  %64 = call i32 (i8*, ...) @__isoc99_scanf(i8* getelementptr inbounds ([3 x i8], [3 x i8]* @.str.1, i64 0, i64 0), i32* %63)
  %65 = load i32, i32* %12, align 4
  %66 = load i32, i32* %8, align 4
  %67 = sub nsw i32 %66, 1
  %68 = icmp slt i32 %65, %67
  br i1 %68, label %69, label %71

69:                                               ; preds = %57
  %70 = call i32 (i8*, ...) @__isoc99_scanf(i8* getelementptr inbounds ([2 x i8], [2 x i8]* @.str.2, i64 0, i64 0))
  br label %71

71:                                               ; preds = %69, %57
  br label %72

72:                                               ; preds = %71
  %73 = load i32, i32* %12, align 4
  %74 = add nsw i32 %73, 1
  store i32 %74, i32* %12, align 4
  br label %53

75:                                               ; preds = %53
  br label %76

76:                                               ; preds = %75
  %77 = load i32, i32* %11, align 4
  %78 = add nsw i32 %77, 1
  store i32 %78, i32* %11, align 4
  br label %48

79:                                               ; preds = %48
  %80 = load i32, i32* %5, align 4
  store i32 %80, i32* %9, align 4
  %81 = load i32, i32* %8, align 4
  store i32 %81, i32* %10, align 4
  store i32 0, i32* %11, align 4
  store i32 0, i32* %12, align 4
  store i32 0, i32* %13, align 4
  store i32 0, i32* %11, align 4
  br label %82

82:                                               ; preds = %140, %79
  %83 = load i32, i32* %11, align 4
  %84 = load i32, i32* %9, align 4
  %85 = icmp slt i32 %83, %84
  br i1 %85, label %86, label %143

86:                                               ; preds = %82
  store i32 0, i32* %12, align 4
  br label %87

87:                                               ; preds = %136, %86
  %88 = load i32, i32* %12, align 4
  %89 = load i32, i32* %10, align 4
  %90 = icmp slt i32 %88, %89
  br i1 %90, label %91, label %139

91:                                               ; preds = %87
  %92 = load i32, i32* %11, align 4
  %93 = sext i32 %92 to i64
  %94 = getelementptr inbounds [100 x [100 x i32]], [100 x [100 x i32]]* %4, i64 0, i64 %93
  %95 = load i32, i32* %12, align 4
  %96 = sext i32 %95 to i64
  %97 = getelementptr inbounds [100 x i32], [100 x i32]* %94, i64 0, i64 %96
  store i32 0, i32* %97, align 4
  store i32 0, i32* %13, align 4
  br label %98

98:                                               ; preds = %132, %91
  %99 = load i32, i32* %13, align 4
  %100 = load i32, i32* %6, align 4
  %101 = icmp slt i32 %99, %100
  br i1 %101, label %102, label %135

102:                                              ; preds = %98
  %103 = load i32, i32* %11, align 4
  %104 = sext i32 %103 to i64
  %105 = getelementptr inbounds [100 x [100 x i32]], [100 x [100 x i32]]* %4, i64 0, i64 %104
  %106 = load i32, i32* %12, align 4
  %107 = sext i32 %106 to i64
  %108 = getelementptr inbounds [100 x i32], [100 x i32]* %105, i64 0, i64 %107
  %109 = load i32, i32* %108, align 4
  %110 = load i32, i32* %11, align 4
  %111 = sext i32 %110 to i64
  %112 = getelementptr inbounds [100 x [100 x i32]], [100 x [100 x i32]]* %2, i64 0, i64 %111
  %113 = load i32, i32* %13, align 4
  %114 = sext i32 %113 to i64
  %115 = getelementptr inbounds [100 x i32], [100 x i32]* %112, i64 0, i64 %114
  %116 = load i32, i32* %115, align 4
  %117 = load i32, i32* %13, align 4
  %118 = sext i32 %117 to i64
  %119 = getelementptr inbounds [100 x [100 x i32]], [100 x [100 x i32]]* %3, i64 0, i64 %118
  %120 = load i32, i32* %12, align 4
  %121 = sext i32 %120 to i64
  %122 = getelementptr inbounds [100 x i32], [100 x i32]* %119, i64 0, i64 %121
  %123 = load i32, i32* %122, align 4
  %124 = mul nsw i32 %116, %123
  %125 = add nsw i32 %109, %124
  %126 = load i32, i32* %11, align 4
  %127 = sext i32 %126 to i64
  %128 = getelementptr inbounds [100 x [100 x i32]], [100 x [100 x i32]]* %4, i64 0, i64 %127
  %129 = load i32, i32* %12, align 4
  %130 = sext i32 %129 to i64
  %131 = getelementptr inbounds [100 x i32], [100 x i32]* %128, i64 0, i64 %130
  store i32 %125, i32* %131, align 4
  br label %132

132:                                              ; preds = %102
  %133 = load i32, i32* %13, align 4
  %134 = add nsw i32 %133, 1
  store i32 %134, i32* %13, align 4
  br label %98

135:                                              ; preds = %98
  store i32 0, i32* %13, align 4
  br label %136

136:                                              ; preds = %135
  %137 = load i32, i32* %12, align 4
  %138 = add nsw i32 %137, 1
  store i32 %138, i32* %12, align 4
  br label %87

139:                                              ; preds = %87
  br label %140

140:                                              ; preds = %139
  %141 = load i32, i32* %11, align 4
  %142 = add nsw i32 %141, 1
  store i32 %142, i32* %11, align 4
  br label %82

143:                                              ; preds = %82
  store i32 0, i32* %11, align 4
  store i32 0, i32* %12, align 4
  store i32 0, i32* %11, align 4
  br label %144

144:                                              ; preds = %175, %143
  %145 = load i32, i32* %11, align 4
  %146 = load i32, i32* %9, align 4
  %147 = icmp slt i32 %145, %146
  br i1 %147, label %148, label %178

148:                                              ; preds = %144
  store i32 0, i32* %12, align 4
  br label %149

149:                                              ; preds = %171, %148
  %150 = load i32, i32* %12, align 4
  %151 = load i32, i32* %10, align 4
  %152 = icmp slt i32 %150, %151
  br i1 %152, label %153, label %174

153:                                              ; preds = %149
  %154 = load i32, i32* %11, align 4
  %155 = sext i32 %154 to i64
  %156 = getelementptr inbounds [100 x [100 x i32]], [100 x [100 x i32]]* %4, i64 0, i64 %155
  %157 = load i32, i32* %12, align 4
  %158 = sext i32 %157 to i64
  %159 = getelementptr inbounds [100 x i32], [100 x i32]* %156, i64 0, i64 %158
  %160 = load i32, i32* %159, align 4
  %161 = call i32 (i8*, ...) @printf(i8* getelementptr inbounds ([3 x i8], [3 x i8]* @.str.1, i64 0, i64 0), i32 %160)
  %162 = load i32, i32* %12, align 4
  %163 = load i32, i32* %10, align 4
  %164 = sub nsw i32 %163, 1
  %165 = icmp slt i32 %162, %164
  br i1 %165, label %166, label %168

166:                                              ; preds = %153
  %167 = call i32 (i8*, ...) @printf(i8* getelementptr inbounds ([2 x i8], [2 x i8]* @.str.2, i64 0, i64 0))
  br label %170

168:                                              ; preds = %153
  %169 = call i32 (i8*, ...) @printf(i8* getelementptr inbounds ([2 x i8], [2 x i8]* @.str.3, i64 0, i64 0))
  br label %170

170:                                              ; preds = %168, %166
  br label %171

171:                                              ; preds = %170
  %172 = load i32, i32* %12, align 4
  %173 = add nsw i32 %172, 1
  store i32 %173, i32* %12, align 4
  br label %149

174:                                              ; preds = %149
  br label %175

175:                                              ; preds = %174
  %176 = load i32, i32* %11, align 4
  %177 = add nsw i32 %176, 1
  store i32 %177, i32* %11, align 4
  br label %144

178:                                              ; preds = %144
  %179 = load i32, i32* %1, align 4
  ret i32 %179
}